; Function Attrs: mustprogress uwtable
define void @_ZN16FunnelStatistics19emitOpenCaptureFileE7QStringS0_(ptr noundef nonnull align 8 dereferenceable(88) %0, ptr nocapture noundef readonly %1, ptr nocapture noundef readonly %2) local_unnamed_addr #0 align 2 personality ptr @__gxx_personality_v0 {
  %4 = alloca %class.QString, align 8
  %5 = alloca %class.QString, align 8
  %6 = load ptr, ptr %1, align 8
  store ptr %6, ptr %4, align 8
  %7 = getelementptr inbounds i8, ptr %4, i64 8
  %8 = getelementptr inbounds i8, ptr %1, i64 8
  %9 = load ptr, ptr %8, align 8
  store ptr %9, ptr %7, align 8
  %10 = getelementptr inbounds i8, ptr %4, i64 16
  %11 = getelementptr inbounds i8, ptr %1, i64 16
  %12 = load i64, ptr %11, align 8
  store i64 %12, ptr %10, align 8
  %.not.i.i.i = icmp eq ptr %6, null
  br i1 %.not.i.i.i, label %_ZN7QStringC2ERKS_.exit, label %13

13:                                               ; preds = %3
  %14 = atomicrmw add ptr %6, i32 1 seq_cst, align 4
  br label %_ZN7QStringC2ERKS_.exit

_ZN7QStringC2ERKS_.exit:                          ; preds = %3, %13
  %15 = load ptr, ptr %2, align 8
  store ptr %15, ptr %5, align 8
  %16 = getelementptr inbounds i8, ptr %5, i64 8
  %17 = getelementptr inbounds i8, ptr %2, i64 8
  %18 = load ptr, ptr %17, align 8
  store ptr %18, ptr %16, align 8
  %19 = getelementptr inbounds i8, ptr %5, i64 16
  %20 = getelementptr inbounds i8, ptr %2, i64 16
  %21 = load i64, ptr %20, align 8
  store i64 %21, ptr %19, align 8
  %.not.i.i.i2 = icmp eq ptr %15, null
  br i1 %.not.i.i.i2, label %_ZN7QStringC2ERKS_.exit3, label %22

22:                                               ; preds = %_ZN7QStringC2ERKS_.exit
  %23 = atomicrmw add ptr %15, i32 1 seq_cst, align 4
  br label %_ZN7QStringC2ERKS_.exit3

_ZN7QStringC2ERKS_.exit3:                         ; preds = %_ZN7QStringC2ERKS_.exit, %22
  invoke void @_ZN16FunnelStatistics15openCaptureFileE7QStringS0_(ptr noundef nonnull align 8 dereferenceable(88) %0, ptr noundef nonnull %4, ptr noundef nonnull %5)
          to label %24 unwind label %33

24:                                               ; preds = %_ZN7QStringC2ERKS_.exit3
  %25 = load ptr, ptr %5, align 8
  %.not.i.i.i4 = icmp eq ptr %25, null
  br i1 %.not.i.i.i4, label %_ZN7QStringD2Ev.exit, label %_ZN17QArrayDataPointerIDsE5derefEv.exit.i.i

_ZN17QArrayDataPointerIDsE5derefEv.exit.i.i:      ; preds = %24
  %26 = atomicrmw sub ptr %25, i32 1 seq_cst, align 4
  %.not.i.i = icmp eq i32 %26, 1
  br i1 %.not.i.i, label %27, label %_ZN7QStringD2Ev.exit

27:                                               ; preds = %_ZN17QArrayDataPointerIDsE5derefEv.exit.i.i
  %28 = load ptr, ptr %5, align 8
  call void @_ZN10QArrayData10deallocateEPS_xx(ptr noundef %28, i64 noundef 2, i64 noundef 8) #24
  br label %_ZN7QStringD2Ev.exit

_ZN7QStringD2Ev.exit:                             ; preds = %24, %_ZN17QArrayDataPointerIDsE5derefEv.exit.i.i, %27
  %29 = load ptr, ptr %4, align 8
  %.not.i.i.i5 = icmp eq ptr %29, null
  br i1 %.not.i.i.i5, label %_ZN7QStringD2Ev.exit8, label %_ZN17QArrayDataPointerIDsE5derefEv.exit.i.i6

_ZN17QArrayDataPointerIDsE5derefEv.exit.i.i6:     ; preds = %_ZN7QStringD2Ev.exit
  %30 = atomicrmw sub ptr %29, i32 1 seq_cst, align 4
  %.not.i.i7 = icmp eq i32 %30, 1
  br i1 %.not.i.i7, label %31, label %_ZN7QStringD2Ev.exit8

31:                                               ; preds = %_ZN17QArrayDataPointerIDsE5derefEv.exit.i.i6
  %32 = load ptr, ptr %4, align 8
  call void @_ZN10QArrayData10deallocateEPS_xx(ptr noundef %32, i64 noundef 2, i64 noundef 8) #24
  br label %_ZN7QStringD2Ev.exit8

_ZN7QStringD2Ev.exit8:                            ; preds = %_ZN7QStringD2Ev.exit, %_ZN17QArrayDataPointerIDsE5derefEv.exit.i.i6, %31
  ret void

33:                                               ; preds = %_ZN7QStringC2ERKS_.exit3
  %34 = landingpad { ptr, i32 }
          cleanup
  %35 = load ptr, ptr %5, align 8
  %.not.i.i.i9 = icmp eq ptr %35, null
  br i1 %.not.i.i.i9, label %_ZN7QStringD2Ev.exit12, label %_ZN17QArrayDataPointerIDsE5derefEv.exit.i.i10

_ZN17QArrayDataPointerIDsE5derefEv.exit.i.i10:    ; preds = %33
  %36 = atomicrmw sub ptr %35, i32 1 seq_cst, align 4
  %.not.i.i11 = icmp eq i32 %36, 1
  br i1 %.not.i.i11, label %37, label %_ZN7QStringD2Ev.exit12

37:                                               ; preds = %_ZN17QArrayDataPointerIDsE5derefEv.exit.i.i10
  %38 = load ptr, ptr %5, align 8
  call void @_ZN10QArrayData10deallocateEPS_xx(ptr noundef %38, i64 noundef 2, i64 noundef 8) #24
  br label %_ZN7QStringD2Ev.exit12

_ZN7QStringD2Ev.exit12:                           ; preds = %33, %_ZN17QArrayDataPointerIDsE5derefEv.exit.i.i10, %37
  %39 = load ptr, ptr %4, align 8
  %.not.i.i.i13 = icmp eq ptr %39, null
  br i1 %.not.i.i.i13, label %_ZN7QStringD2Ev.exit16, label %_ZN17QArrayDataPointerIDsE5derefEv.exit.i.i14

_ZN17QArrayDataPointerIDsE5derefEv.exit.i.i14:    ; preds = %_ZN7QStringD2Ev.exit12
  %40 = atomicrmw sub ptr %39, i32 1 seq_cst, align 4
  %.not.i.i15 = icmp eq i32 %40, 1
  br i1 %.not.i.i15, label %41, label %_ZN7QStringD2Ev.exit16

41:                                               ; preds = %_ZN17QArrayDataPointerIDsE5derefEv.exit.i.i14
  %42 = load ptr, ptr %4, align 8
  call void @_ZN10QArrayData10deallocateEPS_xx(ptr noundef %42, i64 noundef 2, i64 noundef 8) #24
  br label %_ZN7QStringD2Ev.exit16

_ZN7QStringD2Ev.exit16:                           ; preds = %_ZN7QStringD2Ev.exit12, %_ZN17QArrayDataPointerIDsE5derefEv.exit.i.i14, %41
  resume { ptr, i32 } %34
}